target datalayout = "e-m:e-p270:32:32-p271:32:32-p272:64:64-i64:64-i128:128-f80:128-n8:16:32:64-S128"
target triple = "x86_64-pc-linux-gnu"

; Function Attrs: mustprogress uwtable
define dso_local noundef i32 @_ZN25btDiscreteDynamicsWorldMt14stepSimulationEfif(ptr noundef nonnull align 8 dereferenceable(520) %0, float noundef %1, i32 noundef %2, float noundef %3) unnamed_addr #2 align 2 {
  %5 = alloca ptr, align 8
  %6 = alloca float, align 4
  %7 = alloca i32, align 4
  %8 = alloca float, align 4
  %9 = alloca i32, align 4
  %10 = alloca ptr, align 8
  store ptr %0, ptr %5, align 8, !tbaa !68
  store float %1, ptr %6, align 4, !tbaa !129
  store i32 %2, ptr %7, align 4, !tbaa !9
  store float %3, ptr %8, align 4, !tbaa !129
  %11 = load ptr, ptr %5, align 8
  call void @llvm.lifetime.start.p0(i64 4, ptr %9) #13
  %12 = load float, ptr %6, align 4, !tbaa !129
  %13 = load i32, ptr %7, align 4, !tbaa !9
  %14 = load float, ptr %8, align 4, !tbaa !129
  %15 = call noundef i32 @_ZN23btDiscreteDynamicsWorld14stepSimulationEfif(ptr noundef nonnull align 8 dereferenceable(508) %11, float noundef %12, i32 noundef %13, float noundef %14)
  store i32 %15, ptr %9, align 4, !tbaa !9
  call void @llvm.lifetime.start.p0(i64 8, ptr %10) #13
  %16 = call noundef ptr @_Z18btGetTaskSchedulerv()
  store ptr %16, ptr %10, align 8, !tbaa !154
  %17 = load ptr, ptr %10, align 8, !tbaa !154
  %18 = icmp ne ptr %17, null
  br i1 %18, label %19, label %24

19:                                               ; preds = %4
  %20 = load ptr, ptr %10, align 8, !tbaa !154
  %21 = load ptr, ptr %20, align 8, !tbaa !37
  %22 = getelementptr inbounds ptr, ptr %21, i64 7
  %23 = load ptr, ptr %22, align 8
  call void %23(ptr noundef nonnull align 8 dereferenceable(21) %20)
  br label %24

24:                                               ; preds = %19, %4
  call void @llvm.lifetime.end.p0(i64 8, ptr %10) #13
  %25 = load i32, ptr %9, align 4, !tbaa !9
  call void @llvm.lifetime.end.p0(i64 4, ptr %9) #13
  ret i32 %25
}