; Function Attrs: mustprogress uwtable
define dso_local noundef i32 @_ZN25btDiscreteDynamicsWorldMt14stepSimulationEfif(ptr noundef nonnull align 8 dereferenceable(520) %0, float noundef %1, i32 noundef %2, float noundef %3) unnamed_addr #0 align 2 {
  %5 = tail call noundef i32 @_ZN23btDiscreteDynamicsWorld14stepSimulationEfif(ptr noundef nonnull align 8 dereferenceable(508) %0, float noundef %1, i32 noundef %2, float noundef %3)
  %6 = tail call noundef ptr @_Z18btGetTaskSchedulerv()
  %.not = icmp eq ptr %6, null
  br i1 %.not, label %11, label %7

7:                                                ; preds = %4
  %8 = load ptr, ptr %6, align 8, !tbaa !34
  %9 = getelementptr inbounds nuw i8, ptr %8, i64 56
  %10 = load ptr, ptr %9, align 8
  tail call void %10(ptr noundef nonnull align 8 dereferenceable(21) %6)
  br label %11

11:                                               ; preds = %7, %4
  ret i32 %5
}